target datalayout = "e-m:e-p270:32:32-p271:32:32-p272:64:64-i64:64-i128:128-f80:128-n8:16:32:64-S128"
target triple = "x86_64-pc-linux-gnu"

@.str.12 = private unnamed_addr constant [36 x i8] c"REMARK    THIS IS A SIMULATION BOX\0A\00", align 1
@.str.13 = private unnamed_addr constant [47 x i8] c"CRYST1%9.3f%9.3f%9.3f%7.2f%7.2f%7.2f %-11s%4d\0A\00", align 1
@.str.14 = private unnamed_addr constant [4 x i8] c"P 1\00", align 1
@.str.15 = private unnamed_addr constant [9 x i8] c"P 21 1 1\00", align 1

; Function Attrs: inlinehint mustprogress nounwind uwtable
define linkonce_odr noundef float @_ZSt4sqrtf(float noundef %0) #4 comdat {
  %2 = alloca float, align 4
  store float %0, ptr %2, align 4, !tbaa !19
  %3 = load float, ptr %2, align 4, !tbaa !19
  %4 = call float @sqrtf(float noundef %3) #15, !tbaa !21
  ret float %4
}

; Function Attrs: inlinehint mustprogress nounwind uwtable
define linkonce_odr noundef float @_ZSt5atan2ff(float noundef %0, float noundef %1) #4 comdat {
  %3 = alloca float, align 4
  %4 = alloca float, align 4
  store float %0, ptr %3, align 4, !tbaa !19
  store float %1, ptr %4, align 4, !tbaa !19
  %5 = load float, ptr %3, align 4, !tbaa !19
  %6 = load float, ptr %4, align 4, !tbaa !19
  %7 = call float @atan2f(float noundef %5, float noundef %6) #15, !tbaa !21
  ret float %7
}

; Function Attrs: inlinehint mustprogress nounwind uwtable
define internal noundef float @_ZL5iprodPKfS0_(ptr noundef %0, ptr noundef %1) #4 {
  %3 = alloca ptr, align 8
  %4 = alloca ptr, align 8
  store ptr %0, ptr %3, align 8, !tbaa !17
  store ptr %1, ptr %4, align 8, !tbaa !17
  %5 = load ptr, ptr %3, align 8, !tbaa !17
  %6 = getelementptr inbounds float, ptr %5, i64 0
  %7 = load float, ptr %6, align 4, !tbaa !19
  %8 = load ptr, ptr %4, align 8, !tbaa !17
  %9 = getelementptr inbounds float, ptr %8, i64 0
  %10 = load float, ptr %9, align 4, !tbaa !19
  %11 = load ptr, ptr %3, align 8, !tbaa !17
  %12 = getelementptr inbounds float, ptr %11, i64 1
  %13 = load float, ptr %12, align 4, !tbaa !19
  %14 = load ptr, ptr %4, align 8, !tbaa !17
  %15 = getelementptr inbounds float, ptr %14, i64 1
  %16 = load float, ptr %15, align 4, !tbaa !19
  %17 = fmul float %13, %16
  %18 = call float @llvm.fmuladd.f32(float %7, float %10, float %17)
  %19 = load ptr, ptr %3, align 8, !tbaa !17
  %20 = getelementptr inbounds float, ptr %19, i64 2
  %21 = load float, ptr %20, align 4, !tbaa !19
  %22 = load ptr, ptr %4, align 8, !tbaa !17
  %23 = getelementptr inbounds float, ptr %22, i64 2
  %24 = load float, ptr %23, align 4, !tbaa !19
  %25 = call float @llvm.fmuladd.f32(float %21, float %24, float %18)
  ret float %25
}

; Function Attrs: inlinehint mustprogress nounwind uwtable
define internal void @_ZL5cprodPKfS0_Pf(ptr noundef %0, ptr noundef %1, ptr noundef %2) #4 {
  %4 = alloca ptr, align 8
  %5 = alloca ptr, align 8
  %6 = alloca ptr, align 8
  store ptr %0, ptr %4, align 8, !tbaa !17
  store ptr %1, ptr %5, align 8, !tbaa !17
  store ptr %2, ptr %6, align 8, !tbaa !17
  %7 = load ptr, ptr %4, align 8, !tbaa !17
  %8 = getelementptr inbounds float, ptr %7, i64 1
  %9 = load float, ptr %8, align 4, !tbaa !19
  %10 = load ptr, ptr %5, align 8, !tbaa !17
  %11 = getelementptr inbounds float, ptr %10, i64 2
  %12 = load float, ptr %11, align 4, !tbaa !19
  %13 = load ptr, ptr %4, align 8, !tbaa !17
  %14 = getelementptr inbounds float, ptr %13, i64 2
  %15 = load float, ptr %14, align 4, !tbaa !19
  %16 = load ptr, ptr %5, align 8, !tbaa !17
  %17 = getelementptr inbounds float, ptr %16, i64 1
  %18 = load float, ptr %17, align 4, !tbaa !19
  %19 = fmul float %15, %18
  %20 = fneg float %19
  %21 = call float @llvm.fmuladd.f32(float %9, float %12, float %20)
  %22 = load ptr, ptr %6, align 8, !tbaa !17
  %23 = getelementptr inbounds float, ptr %22, i64 0
  store float %21, ptr %23, align 4, !tbaa !19
  %24 = load ptr, ptr %4, align 8, !tbaa !17
  %25 = getelementptr inbounds float, ptr %24, i64 2
  %26 = load float, ptr %25, align 4, !tbaa !19
  %27 = load ptr, ptr %5, align 8, !tbaa !17
  %28 = getelementptr inbounds float, ptr %27, i64 0
  %29 = load float, ptr %28, align 4, !tbaa !19
  %30 = load ptr, ptr %4, align 8, !tbaa !17
  %31 = getelementptr inbounds float, ptr %30, i64 0
  %32 = load float, ptr %31, align 4, !tbaa !19
  %33 = load ptr, ptr %5, align 8, !tbaa !17
  %34 = getelementptr inbounds float, ptr %33, i64 2
  %35 = load float, ptr %34, align 4, !tbaa !19
  %36 = fmul float %32, %35
  %37 = fneg float %36
  %38 = call float @llvm.fmuladd.f32(float %26, float %29, float %37)
  %39 = load ptr, ptr %6, align 8, !tbaa !17
  %40 = getelementptr inbounds float, ptr %39, i64 1
  store float %38, ptr %40, align 4, !tbaa !19
  %41 = load ptr, ptr %4, align 8, !tbaa !17
  %42 = getelementptr inbounds float, ptr %41, i64 0
  %43 = load float, ptr %42, align 4, !tbaa !19
  %44 = load ptr, ptr %5, align 8, !tbaa !17
  %45 = getelementptr inbounds float, ptr %44, i64 1
  %46 = load float, ptr %45, align 4, !tbaa !19
  %47 = load ptr, ptr %4, align 8, !tbaa !17
  %48 = getelementptr inbounds float, ptr %47, i64 1
  %49 = load float, ptr %48, align 4, !tbaa !19
  %50 = load ptr, ptr %5, align 8, !tbaa !17
  %51 = getelementptr inbounds float, ptr %50, i64 0
  %52 = load float, ptr %51, align 4, !tbaa !19
  %53 = fmul float %49, %52
  %54 = fneg float %53
  %55 = call float @llvm.fmuladd.f32(float %43, float %46, float %54)
  %56 = load ptr, ptr %6, align 8, !tbaa !17
  %57 = getelementptr inbounds float, ptr %56, i64 2
  store float %55, ptr %57, align 4, !tbaa !19
  ret void
}

; Function Attrs: inlinehint mustprogress uwtable
define internal noundef float @_ZL4normPKf(ptr noundef %0) #5 {
  %2 = alloca ptr, align 8
  store ptr %0, ptr %2, align 8, !tbaa !17
  %3 = load ptr, ptr %2, align 8, !tbaa !17
  %4 = load ptr, ptr %2, align 8, !tbaa !17
  %5 = call noundef float @_ZL5iprodPKfS0_(ptr noundef %3, ptr noundef %4)
  %6 = call noundef float @_ZSt4sqrtf(float noundef %5)
  ret float %6
}

; Function Attrs: inlinehint mustprogress uwtable
define internal noundef float @_ZL9gmx_anglePKfS0_(ptr noundef %0, ptr noundef %1) #5 {
  %3 = alloca ptr, align 8
  %4 = alloca ptr, align 8
  %5 = alloca [3 x float], align 4
  %6 = alloca float, align 4
  %7 = alloca float, align 4
  store ptr %0, ptr %3, align 8, !tbaa !17
  store ptr %1, ptr %4, align 8, !tbaa !17
  call void @llvm.lifetime.start.p0(i64 12, ptr %5) #15
  call void @llvm.lifetime.start.p0(i64 4, ptr %6) #15
  call void @llvm.lifetime.start.p0(i64 4, ptr %7) #15
  %8 = load ptr, ptr %3, align 8, !tbaa !17
  %9 = load ptr, ptr %4, align 8, !tbaa !17
  %10 = getelementptr inbounds [3 x float], ptr %5, i64 0, i64 0
  call void @_ZL5cprodPKfS0_Pf(ptr noundef %8, ptr noundef %9, ptr noundef %10)
  %11 = getelementptr inbounds [3 x float], ptr %5, i64 0, i64 0
  %12 = call noundef float @_ZL4normPKf(ptr noundef %11)
  store float %12, ptr %6, align 4, !tbaa !19
  %13 = load ptr, ptr %3, align 8, !tbaa !17
  %14 = load ptr, ptr %4, align 8, !tbaa !17
  %15 = call noundef float @_ZL5iprodPKfS0_(ptr noundef %13, ptr noundef %14)
  store float %15, ptr %7, align 4, !tbaa !19
  %16 = load float, ptr %6, align 4, !tbaa !19
  %17 = load float, ptr %7, align 4, !tbaa !19
  %18 = call noundef float @_ZSt5atan2ff(float noundef %16, float noundef %17)
  call void @llvm.lifetime.end.p0(i64 4, ptr %7) #15
  call void @llvm.lifetime.end.p0(i64 4, ptr %6) #15
  call void @llvm.lifetime.end.p0(i64 12, ptr %5) #15
  ret float %18
}

; Function Attrs: inlinehint mustprogress nounwind uwtable
define internal noundef float @_ZL5norm2PKf(ptr noundef %0) #4 {
  %2 = alloca ptr, align 8
  store ptr %0, ptr %2, align 8, !tbaa !17
  %3 = load ptr, ptr %2, align 8, !tbaa !17
  %4 = getelementptr inbounds float, ptr %3, i64 0
  %5 = load float, ptr %4, align 4, !tbaa !19
  %6 = load ptr, ptr %2, align 8, !tbaa !17
  %7 = getelementptr inbounds float, ptr %6, i64 0
  %8 = load float, ptr %7, align 4, !tbaa !19
  %9 = load ptr, ptr %2, align 8, !tbaa !17
  %10 = getelementptr inbounds float, ptr %9, i64 1
  %11 = load float, ptr %10, align 4, !tbaa !19
  %12 = load ptr, ptr %2, align 8, !tbaa !17
  %13 = getelementptr inbounds float, ptr %12, i64 1
  %14 = load float, ptr %13, align 4, !tbaa !19
  %15 = fmul float %11, %14
  %16 = call float @llvm.fmuladd.f32(float %5, float %8, float %15)
  %17 = load ptr, ptr %2, align 8, !tbaa !17
  %18 = getelementptr inbounds float, ptr %17, i64 2
  %19 = load float, ptr %18, align 4, !tbaa !19
  %20 = load ptr, ptr %2, align 8, !tbaa !17
  %21 = getelementptr inbounds float, ptr %20, i64 2
  %22 = load float, ptr %21, align 4, !tbaa !19
  %23 = call float @llvm.fmuladd.f32(float %19, float %22, float %16)
  ret float %23
}

; Function Attrs: mustprogress uwtable
define void @_Z17gmx_write_pdb_boxP8_IO_FILE7PbcTypePA3_Kf(ptr noundef %0, i32 noundef %1, ptr noundef %2) #0 {
  %4 = alloca ptr, align 8
  %5 = alloca i32, align 4
  %6 = alloca ptr, align 8
  %7 = alloca float, align 4
  %8 = alloca float, align 4
  %9 = alloca float, align 4
  %10 = alloca i32, align 4
  store ptr %0, ptr %4, align 8, !tbaa !13
  store i32 %1, ptr %5, align 4, !tbaa !15
  store ptr %2, ptr %6, align 8, !tbaa !17
  call void @llvm.lifetime.start.p0(i64 4, ptr %7) #15
  call void @llvm.lifetime.start.p0(i64 4, ptr %8) #15
  call void @llvm.lifetime.start.p0(i64 4, ptr %9) #15
  %11 = load i32, ptr %5, align 4, !tbaa !15
  %12 = icmp eq i32 %11, 4
  br i1 %12, label %13, label %16

13:                                               ; preds = %3
  %14 = load ptr, ptr %6, align 8, !tbaa !17
  %15 = call noundef i32 @_Z12guessPbcTypePA3_Kf(ptr noundef %14)
  store i32 %15, ptr %5, align 4, !tbaa !15
  br label %16

16:                                               ; preds = %13, %3
  %17 = load i32, ptr %5, align 4, !tbaa !15
  %18 = icmp eq i32 %17, 1
  br i1 %18, label %19, label %20

19:                                               ; preds = %16
  store i32 1, ptr %10, align 4
  br label %149

20:                                               ; preds = %16
  %21 = load ptr, ptr %6, align 8, !tbaa !17
  %22 = getelementptr inbounds [3 x float], ptr %21, i64 1
  %23 = getelementptr inbounds [3 x float], ptr %22, i64 0, i64 0
  %24 = call noundef float @_ZL5norm2PKf(ptr noundef %23)
  %25 = load ptr, ptr %6, align 8, !tbaa !17
  %26 = getelementptr inbounds [3 x float], ptr %25, i64 2
  %27 = getelementptr inbounds [3 x float], ptr %26, i64 0, i64 0
  %28 = call noundef float @_ZL5norm2PKf(ptr noundef %27)
  %29 = fmul float %24, %28
  %30 = fcmp une float %29, 0.000000e+00
  br i1 %30, label %31, label %42

31:                                               ; preds = %20
  %32 = load ptr, ptr %6, align 8, !tbaa !17
  %33 = getelementptr inbounds [3 x float], ptr %32, i64 1
  %34 = getelementptr inbounds [3 x float], ptr %33, i64 0, i64 0
  %35 = load ptr, ptr %6, align 8, !tbaa !17
  %36 = getelementptr inbounds [3 x float], ptr %35, i64 2
  %37 = getelementptr inbounds [3 x float], ptr %36, i64 0, i64 0
  %38 = call noundef float @_ZL9gmx_anglePKfS0_(ptr noundef %34, ptr noundef %37)
  %39 = fpext float %38 to double
  %40 = fmul double 0x404CA5DC1A63C1F8, %39
  %41 = fptrunc double %40 to float
  store float %41, ptr %7, align 4, !tbaa !19
  br label %43

42:                                               ; preds = %20
  store float 9.000000e+01, ptr %7, align 4, !tbaa !19
  br label %43

43:                                               ; preds = %42, %31
  %44 = load ptr, ptr %6, align 8, !tbaa !17
  %45 = getelementptr inbounds [3 x float], ptr %44, i64 0
  %46 = getelementptr inbounds [3 x float], ptr %45, i64 0, i64 0
  %47 = call noundef float @_ZL5norm2PKf(ptr noundef %46)
  %48 = load ptr, ptr %6, align 8, !tbaa !17
  %49 = getelementptr inbounds [3 x float], ptr %48, i64 2
  %50 = getelementptr inbounds [3 x float], ptr %49, i64 0, i64 0
  %51 = call noundef float @_ZL5norm2PKf(ptr noundef %50)
  %52 = fmul float %47, %51
  %53 = fcmp une float %52, 0.000000e+00
  br i1 %53, label %54, label %65

54:                                               ; preds = %43
  %55 = load ptr, ptr %6, align 8, !tbaa !17
  %56 = getelementptr inbounds [3 x float], ptr %55, i64 0
  %57 = getelementptr inbounds [3 x float], ptr %56, i64 0, i64 0
  %58 = load ptr, ptr %6, align 8, !tbaa !17
  %59 = getelementptr inbounds [3 x float], ptr %58, i64 2
  %60 = getelementptr inbounds [3 x float], ptr %59, i64 0, i64 0
  %61 = call noundef float @_ZL9gmx_anglePKfS0_(ptr noundef %57, ptr noundef %60)
  %62 = fpext float %61 to double
  %63 = fmul double 0x404CA5DC1A63C1F8, %62
  %64 = fptrunc double %63 to float
  store float %64, ptr %8, align 4, !tbaa !19
  br label %66

65:                                               ; preds = %43
  store float 9.000000e+01, ptr %8, align 4, !tbaa !19
  br label %66

66:                                               ; preds = %65, %54
  %67 = load ptr, ptr %6, align 8, !tbaa !17
  %68 = getelementptr inbounds [3 x float], ptr %67, i64 0
  %69 = getelementptr inbounds [3 x float], ptr %68, i64 0, i64 0
  %70 = call noundef float @_ZL5norm2PKf(ptr noundef %69)
  %71 = load ptr, ptr %6, align 8, !tbaa !17
  %72 = getelementptr inbounds [3 x float], ptr %71, i64 1
  %73 = getelementptr inbounds [3 x float], ptr %72, i64 0, i64 0
  %74 = call noundef float @_ZL5norm2PKf(ptr noundef %73)
  %75 = fmul float %70, %74
  %76 = fcmp une float %75, 0.000000e+00
  br i1 %76, label %77, label %88

77:                                               ; preds = %66
  %78 = load ptr, ptr %6, align 8, !tbaa !17
  %79 = getelementptr inbounds [3 x float], ptr %78, i64 0
  %80 = getelementptr inbounds [3 x float], ptr %79, i64 0, i64 0
  %81 = load ptr, ptr %6, align 8, !tbaa !17
  %82 = getelementptr inbounds [3 x float], ptr %81, i64 1
  %83 = getelementptr inbounds [3 x float], ptr %82, i64 0, i64 0
  %84 = call noundef float @_ZL9gmx_anglePKfS0_(ptr noundef %80, ptr noundef %83)
  %85 = fpext float %84 to double
  %86 = fmul double 0x404CA5DC1A63C1F8, %85
  %87 = fptrunc double %86 to float
  store float %87, ptr %9, align 4, !tbaa !19
  br label %89

88:                                               ; preds = %66
  store float 9.000000e+01, ptr %9, align 4, !tbaa !19
  br label %89

89:                                               ; preds = %88, %77
  %90 = load ptr, ptr %4, align 8, !tbaa !13
  %91 = call i32 (ptr, ptr, ...) @fprintf(ptr noundef %90, ptr noundef @.str.12) #15
  %92 = load i32, ptr %5, align 4, !tbaa !15
  %93 = icmp ne i32 %92, 3
  br i1 %93, label %94, label %121

94:                                               ; preds = %89
  %95 = load ptr, ptr %4, align 8, !tbaa !13
  %96 = load ptr, ptr %6, align 8, !tbaa !17
  %97 = getelementptr inbounds [3 x float], ptr %96, i64 0
  %98 = getelementptr inbounds [3 x float], ptr %97, i64 0, i64 0
  %99 = call noundef float @_ZL4normPKf(ptr noundef %98)
  %100 = fmul float 1.000000e+01, %99
  %101 = fpext float %100 to double
  %102 = load ptr, ptr %6, align 8, !tbaa !17
  %103 = getelementptr inbounds [3 x float], ptr %102, i64 1
  %104 = getelementptr inbounds [3 x float], ptr %103, i64 0, i64 0
  %105 = call noundef float @_ZL4normPKf(ptr noundef %104)
  %106 = fmul float 1.000000e+01, %105
  %107 = fpext float %106 to double
  %108 = load ptr, ptr %6, align 8, !tbaa !17
  %109 = getelementptr inbounds [3 x float], ptr %108, i64 2
  %110 = getelementptr inbounds [3 x float], ptr %109, i64 0, i64 0
  %111 = call noundef float @_ZL4normPKf(ptr noundef %110)
  %112 = fmul float 1.000000e+01, %111
  %113 = fpext float %112 to double
  %114 = load float, ptr %7, align 4, !tbaa !19
  %115 = fpext float %114 to double
  %116 = load float, ptr %8, align 4, !tbaa !19
  %117 = fpext float %116 to double
  %118 = load float, ptr %9, align 4, !tbaa !19
  %119 = fpext float %118 to double
  %120 = call i32 (ptr, ptr, ...) @fprintf(ptr noundef %95, ptr noundef @.str.13, double noundef %101, double noundef %107, double noundef %113, double noundef %115, double noundef %117, double noundef %119, ptr noundef @.str.14, i32 noundef 1) #15
  br label %148

121:                                              ; preds = %89
  %122 = load ptr, ptr %4, align 8, !tbaa !13
  %123 = load ptr, ptr %6, align 8, !tbaa !17
  %124 = getelementptr inbounds [3 x float], ptr %123, i64 0
  %125 = getelementptr inbounds [3 x float], ptr %124, i64 0, i64 0
  %126 = call noundef float @_ZL4normPKf(ptr noundef %125)
  %127 = fmul float 2.000000e+01, %126
  %128 = fpext float %127 to double
  %129 = load ptr, ptr %6, align 8, !tbaa !17
  %130 = getelementptr inbounds [3 x float], ptr %129, i64 1
  %131 = getelementptr inbounds [3 x float], ptr %130, i64 0, i64 0
  %132 = call noundef float @_ZL4normPKf(ptr noundef %131)
  %133 = fmul float 1.000000e+01, %132
  %134 = fpext float %133 to double
  %135 = load ptr, ptr %6, align 8, !tbaa !17
  %136 = getelementptr inbounds [3 x float], ptr %135, i64 2
  %137 = getelementptr inbounds [3 x float], ptr %136, i64 0, i64 0
  %138 = call noundef float @_ZL4normPKf(ptr noundef %137)
  %139 = fmul float 1.000000e+01, %138
  %140 = fpext float %139 to double
  %141 = load float, ptr %7, align 4, !tbaa !19
  %142 = fpext float %141 to double
  %143 = load float, ptr %8, align 4, !tbaa !19
  %144 = fpext float %143 to double
  %145 = load float, ptr %9, align 4, !tbaa !19
  %146 = fpext float %145 to double
  %147 = call i32 (ptr, ptr, ...) @fprintf(ptr noundef %122, ptr noundef @.str.13, double noundef %128, double noundef %134, double noundef %140, double noundef %142, double noundef %144, double noundef %146, ptr noundef @.str.15, i32 noundef 1) #15
  br label %148

148:                                              ; preds = %121, %94
  store i32 0, ptr %10, align 4
  br label %149

149:                                              ; preds = %148, %19
  call void @llvm.lifetime.end.p0(i64 4, ptr %9) #15
  call void @llvm.lifetime.end.p0(i64 4, ptr %8) #15
  call void @llvm.lifetime.end.p0(i64 4, ptr %7) #15
  %150 = load i32, ptr %10, align 4
  switch i32 %150, label %152 [
    i32 0, label %151
    i32 1, label %151
  ]

151:                                              ; preds = %149, %149
  ret void

152:                                              ; preds = %149
  unreachable
}