; Function Attrs: mustprogress uwtable
define void @_Z17gmx_write_pdb_boxP8_IO_FILE7PbcTypePA3_Kf(ptr noundef captures(none) %0, i32 noundef %1, ptr noundef %2) local_unnamed_addr #1 {
  %4 = icmp eq i32 %1, 4
  br i1 %4, label %5, label %7

5:                                                ; preds = %3
  %6 = tail call noundef i32 @_Z12guessPbcTypePA3_Kf(ptr noundef %2)
  br label %7

7:                                                ; preds = %5, %3
  %.032 = phi i32 [ %6, %5 ], [ %1, %3 ]
  %8 = icmp eq i32 %.032, 1
  br i1 %8, label %133, label %9

9:                                                ; preds = %7
  %10 = getelementptr inbounds nuw i8, ptr %2, i64 12
  %11 = load float, ptr %10, align 4, !tbaa !9
  %12 = getelementptr inbounds nuw i8, ptr %2, i64 16
  %13 = load float, ptr %12, align 4, !tbaa !9
  %14 = fmul float %13, %13
  %15 = tail call float @llvm.fmuladd.f32(float %11, float %11, float %14)
  %16 = getelementptr inbounds nuw i8, ptr %2, i64 20
  %17 = load float, ptr %16, align 4, !tbaa !9
  %18 = tail call noundef float @llvm.fmuladd.f32(float %17, float %17, float %15)
  %19 = getelementptr inbounds nuw i8, ptr %2, i64 24
  %20 = load float, ptr %19, align 4, !tbaa !9
  %21 = getelementptr inbounds nuw i8, ptr %2, i64 28
  %22 = load float, ptr %21, align 4, !tbaa !9
  %23 = fmul float %22, %22
  %24 = tail call float @llvm.fmuladd.f32(float %20, float %20, float %23)
  %25 = getelementptr inbounds nuw i8, ptr %2, i64 32
  %26 = load float, ptr %25, align 4, !tbaa !9
  %27 = tail call noundef float @llvm.fmuladd.f32(float %26, float %26, float %24)
  %28 = fmul float %18, %27
  %29 = fcmp une float %28, 0.000000e+00
  br i1 %29, label %30, label %51

30:                                               ; preds = %9
  %31 = fneg float %22
  %32 = fmul float %17, %31
  %33 = tail call float @llvm.fmuladd.f32(float %13, float %26, float %32)
  %34 = fneg float %26
  %35 = fmul float %11, %34
  %36 = tail call float @llvm.fmuladd.f32(float %17, float %20, float %35)
  %37 = fneg float %20
  %38 = fmul float %13, %37
  %39 = tail call float @llvm.fmuladd.f32(float %11, float %22, float %38)
  %40 = fmul float %36, %36
  %41 = tail call float @llvm.fmuladd.f32(float %33, float %33, float %40)
  %42 = tail call noundef float @llvm.fmuladd.f32(float %39, float %39, float %41)
  %sqrt.i.i = tail call noundef float @llvm.sqrt.f32(float %42)
  %43 = fmul float %13, %22
  %44 = tail call float @llvm.fmuladd.f32(float %11, float %20, float %43)
  %45 = tail call noundef float @llvm.fmuladd.f32(float %17, float %26, float %44)
  %46 = tail call noundef float @atan2f(float noundef %sqrt.i.i, float noundef %45) #28, !tbaa !11
  %47 = fpext float %46 to double
  %48 = fmul double %47, 0x404CA5DC1A63C1F8
  %49 = fptrunc double %48 to float
  %50 = fpext float %49 to double
  br label %51

51:                                               ; preds = %9, %30
  %.031 = phi double [ %50, %30 ], [ 9.000000e+01, %9 ]
  %52 = load float, ptr %2, align 4, !tbaa !9
  %53 = getelementptr inbounds nuw i8, ptr %2, i64 4
  %54 = load float, ptr %53, align 4, !tbaa !9
  %55 = fmul float %54, %54
  %56 = tail call float @llvm.fmuladd.f32(float %52, float %52, float %55)
  %57 = getelementptr inbounds nuw i8, ptr %2, i64 8
  %58 = load float, ptr %57, align 4, !tbaa !9
  %59 = tail call noundef float @llvm.fmuladd.f32(float %58, float %58, float %56)
  %60 = fmul float %27, %59
  %61 = fcmp une float %60, 0.000000e+00
  br i1 %61, label %62, label %83

62:                                               ; preds = %51
  %63 = fneg float %22
  %64 = fmul float %58, %63
  %65 = tail call float @llvm.fmuladd.f32(float %54, float %26, float %64)
  %66 = fneg float %26
  %67 = fmul float %52, %66
  %68 = tail call float @llvm.fmuladd.f32(float %58, float %20, float %67)
  %69 = fneg float %20
  %70 = fmul float %54, %69
  %71 = tail call float @llvm.fmuladd.f32(float %52, float %22, float %70)
  %72 = fmul float %68, %68
  %73 = tail call float @llvm.fmuladd.f32(float %65, float %65, float %72)
  %74 = tail call noundef float @llvm.fmuladd.f32(float %71, float %71, float %73)
  %sqrt.i.i34 = tail call noundef float @llvm.sqrt.f32(float %74)
  %75 = fmul float %22, %54
  %76 = tail call float @llvm.fmuladd.f32(float %52, float %20, float %75)
  %77 = tail call noundef float @llvm.fmuladd.f32(float %58, float %26, float %76)
  %78 = tail call noundef float @atan2f(float noundef %sqrt.i.i34, float noundef %77) #28, !tbaa !11
  %79 = fpext float %78 to double
  %80 = fmul double %79, 0x404CA5DC1A63C1F8
  %81 = fptrunc double %80 to float
  %82 = fpext float %81 to double
  br label %83

83:                                               ; preds = %51, %62
  %.030 = phi double [ %82, %62 ], [ 9.000000e+01, %51 ]
  %84 = fmul float %18, %59
  %85 = fcmp une float %84, 0.000000e+00
  br i1 %85, label %86, label %.sink.split

86:                                               ; preds = %83
  %87 = fneg float %13
  %88 = fmul float %58, %87
  %89 = tail call float @llvm.fmuladd.f32(float %54, float %17, float %88)
  %90 = fneg float %17
  %91 = fmul float %52, %90
  %92 = tail call float @llvm.fmuladd.f32(float %58, float %11, float %91)
  %93 = fneg float %11
  %94 = fmul float %54, %93
  %95 = tail call float @llvm.fmuladd.f32(float %52, float %13, float %94)
  %96 = fmul float %92, %92
  %97 = tail call float @llvm.fmuladd.f32(float %89, float %89, float %96)
  %98 = tail call noundef float @llvm.fmuladd.f32(float %95, float %95, float %97)
  %sqrt.i.i35 = tail call noundef float @llvm.sqrt.f32(float %98)
  %99 = fmul float %13, %54
  %100 = tail call float @llvm.fmuladd.f32(float %52, float %11, float %99)
  %101 = tail call noundef float @llvm.fmuladd.f32(float %58, float %17, float %100)
  %102 = tail call noundef float @atan2f(float noundef %sqrt.i.i35, float noundef %101) #28, !tbaa !11
  %103 = fpext float %102 to double
  %104 = fmul double %103, 0x404CA5DC1A63C1F8
  %105 = fptrunc double %104 to float
  %106 = fpext float %105 to double
  br label %.sink.split

.sink.split:                                      ; preds = %83, %86
  %.0 = phi double [ %106, %86 ], [ 9.000000e+01, %83 ]
  %107 = tail call i64 @fwrite(ptr nonnull @.str.12, i64 35, i64 1, ptr %0)
  %.not = icmp eq i32 %.032, 3
  %108 = load float, ptr %2, align 4, !tbaa !9
  %109 = load float, ptr %53, align 4, !tbaa !9
  %110 = fmul float %109, %109
  %111 = tail call float @llvm.fmuladd.f32(float %108, float %108, float %110)
  %112 = load float, ptr %57, align 4, !tbaa !9
  %113 = tail call noundef float @llvm.fmuladd.f32(float %112, float %112, float %111)
  %sqrt.i38 = tail call noundef float @llvm.sqrt.f32(float %113)
  %114 = load float, ptr %10, align 4, !tbaa !9
  %115 = load float, ptr %12, align 4, !tbaa !9
  %116 = fmul float %115, %115
  %117 = tail call float @llvm.fmuladd.f32(float %114, float %114, float %116)
  %118 = load float, ptr %16, align 4, !tbaa !9
  %119 = tail call noundef float @llvm.fmuladd.f32(float %118, float %118, float %117)
  %sqrt.i39 = tail call noundef float @llvm.sqrt.f32(float %119)
  %120 = fmul float %sqrt.i39, 1.000000e+01
  %121 = fpext float %120 to double
  %122 = load float, ptr %19, align 4, !tbaa !9
  %123 = load float, ptr %21, align 4, !tbaa !9
  %124 = fmul float %123, %123
  %125 = tail call float @llvm.fmuladd.f32(float %122, float %122, float %124)
  %126 = load float, ptr %25, align 4, !tbaa !9
  %127 = tail call noundef float @llvm.fmuladd.f32(float %126, float %126, float %125)
  %sqrt.i40 = tail call noundef float @llvm.sqrt.f32(float %127)
  %128 = fmul float %sqrt.i40, 1.000000e+01
  %129 = fpext float %128 to double
  %. = select i1 %.not, float 2.000000e+01, float 1.000000e+01
  %.str.15..str.14 = select i1 %.not, ptr @.str.15, ptr @.str.14
  %130 = fmul float %sqrt.i38, %.
  %131 = fpext float %130 to double
  %132 = tail call i32 (ptr, ptr, ...) @fprintf(ptr noundef %0, ptr noundef nonnull @.str.13, double noundef %131, double noundef %121, double noundef %129, double noundef %.031, double noundef %.030, double noundef %.0, ptr noundef nonnull %.str.15..str.14, i32 noundef 1) #28
  br label %133

133:                                              ; preds = %.sink.split, %7
  ret void
}